target datalayout = "e-m:e-p270:32:32-p271:32:32-p272:64:64-i64:64-i128:128-f80:128-n8:16:32:64-S128"
target triple = "x86_64-pc-linux-gnu"

@If_CluHashKey2.BigPrimes = internal global [8 x i32] [i32 12582917, i32 25165843, i32 50331653, i32 100663319, i32 201326611, i32 402653189, i32 805306457, i32 1610612741], align 16

; Function Attrs: nounwind uwtable
define i32 @If_CluHashKey2(ptr noundef %0, i32 noundef %1, i32 noundef %2) #0 {
  %4 = alloca ptr, align 8
  %5 = alloca i32, align 4
  %6 = alloca i32, align 4
  %7 = alloca i32, align 4
  %8 = alloca i32, align 4
  %9 = alloca ptr, align 8
  %10 = alloca ptr, align 8
  store ptr %0, ptr %4, align 8, !tbaa !28
  store i32 %1, ptr %5, align 4, !tbaa !3
  store i32 %2, ptr %6, align 4, !tbaa !3
  call void @llvm.lifetime.start.p0(i64 4, ptr %7) #11
  store i32 0, ptr %7, align 4, !tbaa !3
  call void @llvm.lifetime.start.p0(i64 4, ptr %8) #11
  %11 = load i32, ptr %5, align 4, !tbaa !3
  %12 = icmp slt i32 %11, 4
  br i1 %12, label %13, label %39

13:                                               ; preds = %3
  call void @llvm.lifetime.start.p0(i64 8, ptr %9) #11
  %14 = load ptr, ptr %4, align 8, !tbaa !28
  store ptr %14, ptr %9, align 8, !tbaa !30
  store i32 0, ptr %8, align 4, !tbaa !3
  br label %15

15:                                               ; preds = %35, %13
  %16 = load i32, ptr %8, align 4, !tbaa !3
  %17 = load i32, ptr %5, align 4, !tbaa !3
  %18 = mul nsw i32 8, %17
  %19 = icmp slt i32 %16, %18
  br i1 %19, label %20, label %38

20:                                               ; preds = %15
  %21 = load i32, ptr %8, align 4, !tbaa !3
  %22 = srem i32 %21, 7
  %23 = sext i32 %22 to i64
  %24 = getelementptr inbounds [8 x i32], ptr @If_CluHashKey2.BigPrimes, i64 0, i64 %23
  %25 = load i32, ptr %24, align 4, !tbaa !3
  %26 = load ptr, ptr %9, align 8, !tbaa !30
  %27 = load i32, ptr %8, align 4, !tbaa !3
  %28 = sext i32 %27 to i64
  %29 = getelementptr inbounds i8, ptr %26, i64 %28
  %30 = load i8, ptr %29, align 1, !tbaa !32
  %31 = zext i8 %30 to i32
  %32 = mul i32 %25, %31
  %33 = load i32, ptr %7, align 4, !tbaa !3
  %34 = xor i32 %33, %32
  store i32 %34, ptr %7, align 4, !tbaa !3
  br label %35

35:                                               ; preds = %20
  %36 = load i32, ptr %8, align 4, !tbaa !3
  %37 = add nsw i32 %36, 1
  store i32 %37, ptr %8, align 4, !tbaa !3
  br label %15, !llvm.loop !33

38:                                               ; preds = %15
  call void @llvm.lifetime.end.p0(i64 8, ptr %9) #11
  br label %64

39:                                               ; preds = %3
  call void @llvm.lifetime.start.p0(i64 8, ptr %10) #11
  %40 = load ptr, ptr %4, align 8, !tbaa !28
  store ptr %40, ptr %10, align 8, !tbaa !34
  store i32 0, ptr %8, align 4, !tbaa !3
  br label %41

41:                                               ; preds = %60, %39
  %42 = load i32, ptr %8, align 4, !tbaa !3
  %43 = load i32, ptr %5, align 4, !tbaa !3
  %44 = mul nsw i32 2, %43
  %45 = icmp slt i32 %42, %44
  br i1 %45, label %46, label %63

46:                                               ; preds = %41
  %47 = load i32, ptr %8, align 4, !tbaa !3
  %48 = srem i32 %47, 7
  %49 = sext i32 %48 to i64
  %50 = getelementptr inbounds [8 x i32], ptr @If_CluHashKey2.BigPrimes, i64 0, i64 %49
  %51 = load i32, ptr %50, align 4, !tbaa !3
  %52 = load ptr, ptr %10, align 8, !tbaa !34
  %53 = load i32, ptr %8, align 4, !tbaa !3
  %54 = sext i32 %53 to i64
  %55 = getelementptr inbounds i32, ptr %52, i64 %54
  %56 = load i32, ptr %55, align 4, !tbaa !3
  %57 = mul i32 %51, %56
  %58 = load i32, ptr %7, align 4, !tbaa !3
  %59 = xor i32 %58, %57
  store i32 %59, ptr %7, align 4, !tbaa !3
  br label %60

60:                                               ; preds = %46
  %61 = load i32, ptr %8, align 4, !tbaa !3
  %62 = add nsw i32 %61, 1
  store i32 %62, ptr %8, align 4, !tbaa !3
  br label %41, !llvm.loop !35

63:                                               ; preds = %41
  call void @llvm.lifetime.end.p0(i64 8, ptr %10) #11
  br label %64

64:                                               ; preds = %63, %38
  %65 = load i32, ptr %7, align 4, !tbaa !3
  %66 = load i32, ptr %6, align 4, !tbaa !3
  %67 = urem i32 %65, %66
  call void @llvm.lifetime.end.p0(i64 4, ptr %8) #11
  call void @llvm.lifetime.end.p0(i64 4, ptr %7) #11
  ret i32 %67
}