; Function Attrs: nofree norecurse nosync nounwind memory(argmem: read) uwtable
define range(i32 0, -1) i32 @If_CluHashKey2(ptr noundef readonly captures(none) %0, i32 noundef %1, i32 noundef %2) local_unnamed_addr #3 {
  %4 = icmp slt i32 %1, 4
  br i1 %4, label %.preheader, label %.preheader22

.preheader22:                                     ; preds = %3
  %5 = shl nuw nsw i32 %1, 1
  %wide.trip.count = zext nneg i32 %5 to i64
  br label %18

.preheader:                                       ; preds = %3
  %6 = icmp sgt i32 %1, 0
  br i1 %6, label %.lr.ph.preheader, label %.loopexit

.lr.ph.preheader:                                 ; preds = %.preheader
  %7 = shl nuw nsw i32 %1, 3
  %wide.trip.count34 = zext nneg i32 %7 to i64
  br label %.lr.ph

.lr.ph:                                           ; preds = %.lr.ph.preheader, %.lr.ph
  %indvars.iv31 = phi i64 [ 0, %.lr.ph.preheader ], [ %indvars.iv.next32, %.lr.ph ]
  %.027 = phi i32 [ 0, %.lr.ph.preheader ], [ %17, %.lr.ph ]
  %8 = trunc nuw nsw i64 %indvars.iv31 to i32
  %9 = urem i32 %8, 7
  %10 = zext nneg i32 %9 to i64
  %11 = getelementptr inbounds nuw [8 x i32], ptr @If_CluHashKey2.BigPrimes, i64 0, i64 %10
  %12 = load i32, ptr %11, align 4, !tbaa !15
  %13 = getelementptr inbounds nuw i8, ptr %0, i64 %indvars.iv31
  %14 = load i8, ptr %13, align 1, !tbaa !24
  %15 = zext i8 %14 to i32
  %16 = mul i32 %12, %15
  %17 = xor i32 %16, %.027
  %indvars.iv.next32 = add nuw nsw i64 %indvars.iv31, 1
  %exitcond35.not = icmp eq i64 %indvars.iv.next32, %wide.trip.count34
  br i1 %exitcond35.not, label %.loopexit, label %.lr.ph, !llvm.loop !25

18:                                               ; preds = %.preheader22, %18
  %indvars.iv = phi i64 [ 0, %.preheader22 ], [ %indvars.iv.next, %18 ]
  %.225 = phi i32 [ 0, %.preheader22 ], [ %27, %18 ]
  %19 = trunc nuw nsw i64 %indvars.iv to i32
  %20 = urem i32 %19, 7
  %21 = zext nneg i32 %20 to i64
  %22 = getelementptr inbounds nuw [8 x i32], ptr @If_CluHashKey2.BigPrimes, i64 0, i64 %21
  %23 = load i32, ptr %22, align 4, !tbaa !15
  %24 = getelementptr inbounds nuw i32, ptr %0, i64 %indvars.iv
  %25 = load i32, ptr %24, align 4, !tbaa !15
  %26 = mul i32 %25, %23
  %27 = xor i32 %26, %.225
  %indvars.iv.next = add nuw nsw i64 %indvars.iv, 1
  %exitcond.not = icmp eq i64 %indvars.iv.next, %wide.trip.count
  br i1 %exitcond.not, label %.loopexit, label %18, !llvm.loop !26

.loopexit:                                        ; preds = %18, %.lr.ph, %.preheader
  %.1 = phi i32 [ 0, %.preheader ], [ %17, %.lr.ph ], [ %27, %18 ]
  %28 = urem i32 %.1, %2
  ret i32 %28
}